target datalayout = "e-m:e-p270:32:32-p271:32:32-p272:64:64-i64:64-i128:128-f80:128-n8:16:32:64-S128"
target triple = "x86_64-pc-linux-gnu"

%class.G1HeapRegion = type { ptr, ptr, ptr, ptr, ptr, ptr, i32, %class.G1HeapRegionType, ptr, i32, ptr, ptr, ptr, i64, i32, ptr, i32, i32, i64 }
%class.G1HeapRegionType = type { i32 }
%class.G1HeapRegionSetBase = type <{ ptr, ptr, i32, [4 x i8], ptr, i8, [7 x i8] }>
%class.G1FreeRegionList = type { %class.G1HeapRegionSetBase.base, ptr, ptr, ptr, ptr }
%class.G1HeapRegionSetBase.base = type <{ ptr, ptr, i32, [4 x i8], ptr, i8 }>

@_ZN16G1FreeRegionList28_unrealistically_long_lengthE = hidden global i32 0, align 4
@g_assert_poison = external global ptr, align 8
@.str = private unnamed_addr constant [44 x i8] c"src/hotspot/share/gc/g1/g1HeapRegionSet.cpp\00", align 1
@.str.12 = private unnamed_addr constant [63 x i8] c"guarantee(_head == nullptr || _head->prev() == nullptr) failed\00", align 1
@.str.13 = private unnamed_addr constant [29 x i8] c"_head should not have a prev\00", align 1
@.str.14 = private unnamed_addr constant [55 x i8] c"guarantee(count < _unrealistically_long_length) failed\00", align 1
@.str.15 = private unnamed_addr constant [130 x i8] c"[%s] the calculated length: %u seems very long, is there maybe a cycle? curr: 0x%016lx prev0: 0x%016lx prev1: 0x%016lx length: %u\00", align 1
@.str.16 = private unnamed_addr constant [47 x i8] c"guarantee(curr->next()->prev() == curr) failed\00", align 1
@.str.17 = private unnamed_addr constant [32 x i8] c"Next or prev pointers messed up\00", align 1
@.str.18 = private unnamed_addr constant [75 x i8] c"guarantee(curr->hrm_index() == 0 || curr->hrm_index() > last_index) failed\00", align 1
@.str.19 = private unnamed_addr constant [22 x i8] c"List should be sorted\00", align 1
@.str.20 = private unnamed_addr constant [33 x i8] c"guarantee(_tail == prev0) failed\00", align 1
@.str.21 = private unnamed_addr constant [49 x i8] c"Expected %s to end with %u but it ended with %u.\00", align 1
@.str.22 = private unnamed_addr constant [63 x i8] c"guarantee(_tail == nullptr || _tail->next() == nullptr) failed\00", align 1
@.str.23 = private unnamed_addr constant [29 x i8] c"_tail should not have a next\00", align 1
@.str.24 = private unnamed_addr constant [36 x i8] c"guarantee(length() == count) failed\00", align 1
@.str.25 = private unnamed_addr constant [43 x i8] c"%s count mismatch. Expected %u, actual %u.\00", align 1

; Function Attrs: mustprogress nounwind uwtable
define linkonce_odr hidden noundef i64 @_Z13pointer_deltaPVKvS0_m(ptr noundef %0, ptr noundef %1, i64 noundef %2) #1 comdat {
  %4 = alloca ptr, align 8
  %5 = alloca ptr, align 8
  %6 = alloca i64, align 8
  store ptr %0, ptr %4, align 8
  store ptr %1, ptr %5, align 8
  store i64 %2, ptr %6, align 8
  %7 = load ptr, ptr %4, align 8
  %8 = ptrtoint ptr %7 to i64
  %9 = load ptr, ptr %5, align 8
  %10 = ptrtoint ptr %9 to i64
  %11 = sub i64 %8, %10
  %12 = load i64, ptr %6, align 8
  %13 = udiv i64 %11, %12
  ret i64 %13
}

; Function Attrs: mustprogress nounwind uwtable
define linkonce_odr hidden noundef i64 @_Z9byte_sizePvS_(ptr noundef %0, ptr noundef %1) #1 comdat {
  %3 = alloca ptr, align 8
  %4 = alloca ptr, align 8
  store ptr %0, ptr %3, align 8
  store ptr %1, ptr %4, align 8
  %5 = load ptr, ptr %4, align 8
  %6 = load ptr, ptr %3, align 8
  %7 = call noundef i64 @_Z13pointer_deltaPVKvS0_m(ptr noundef %5, ptr noundef %6, i64 noundef 1)
  ret i64 %7
}

; Function Attrs: mustprogress nounwind uwtable
define linkonce_odr hidden noundef ptr @_ZNK12G1HeapRegion3endEv(ptr noundef nonnull align 8 dereferenceable(136) %0) #1 comdat align 2 {
  %2 = alloca ptr, align 8
  store ptr %0, ptr %2, align 8
  %3 = load ptr, ptr %2, align 8
  %4 = getelementptr inbounds %class.G1HeapRegion, ptr %3, i32 0, i32 1
  %5 = load ptr, ptr %4, align 8
  ret ptr %5
}

; Function Attrs: mustprogress nounwind uwtable
define linkonce_odr hidden noundef ptr @_ZNK12G1HeapRegion6bottomEv(ptr noundef nonnull align 8 dereferenceable(136) %0) #1 comdat align 2 {
  %2 = alloca ptr, align 8
  store ptr %0, ptr %2, align 8
  %3 = load ptr, ptr %2, align 8
  %4 = getelementptr inbounds %class.G1HeapRegion, ptr %3, i32 0, i32 0
  %5 = load ptr, ptr %4, align 8
  ret ptr %5
}

; Function Attrs: mustprogress nounwind uwtable
define linkonce_odr hidden noundef i64 @_ZNK12G1HeapRegion8capacityEv(ptr noundef nonnull align 8 dereferenceable(136) %0) #1 comdat align 2 {
  %2 = alloca ptr, align 8
  store ptr %0, ptr %2, align 8
  %3 = load ptr, ptr %2, align 8
  %4 = call noundef ptr @_ZNK12G1HeapRegion6bottomEv(ptr noundef nonnull align 8 dereferenceable(136) %3)
  %5 = call noundef ptr @_ZNK12G1HeapRegion3endEv(ptr noundef nonnull align 8 dereferenceable(136) %3)
  %6 = call noundef i64 @_Z9byte_sizePvS_(ptr noundef %4, ptr noundef %5)
  ret i64 %6
}

; Function Attrs: mustprogress nounwind uwtable
define linkonce_odr hidden noundef i32 @_ZNK12G1HeapRegion9hrm_indexEv(ptr noundef nonnull align 8 dereferenceable(136) %0) #1 comdat align 2 {
  %2 = alloca ptr, align 8
  store ptr %0, ptr %2, align 8
  %3 = load ptr, ptr %2, align 8
  %4 = getelementptr inbounds %class.G1HeapRegion, ptr %3, i32 0, i32 6
  %5 = load i32, ptr %4, align 8
  ret i32 %5
}

; Function Attrs: mustprogress nounwind uwtable
define linkonce_odr hidden noundef ptr @_ZN12G1HeapRegion4nextEv(ptr noundef nonnull align 8 dereferenceable(136) %0) #1 comdat align 2 {
  %2 = alloca ptr, align 8
  store ptr %0, ptr %2, align 8
  %3 = load ptr, ptr %2, align 8
  %4 = getelementptr inbounds %class.G1HeapRegion, ptr %3, i32 0, i32 10
  %5 = load ptr, ptr %4, align 8
  ret ptr %5
}

; Function Attrs: mustprogress nounwind uwtable
define linkonce_odr hidden noundef i32 @_ZNK19G1HeapRegionSetBase6lengthEv(ptr noundef nonnull align 8 dereferenceable(33) %0) #1 comdat align 2 {
  %2 = alloca ptr, align 8
  store ptr %0, ptr %2, align 8
  %3 = load ptr, ptr %2, align 8
  %4 = getelementptr inbounds %class.G1HeapRegionSetBase, ptr %3, i32 0, i32 2
  %5 = load i32, ptr %4, align 8
  ret i32 %5
}

; Function Attrs: mustprogress nounwind uwtable
define linkonce_odr hidden noundef i64 @_Z3p2iPVKv(ptr noundef %0) #1 comdat {
  %2 = alloca ptr, align 8
  store ptr %0, ptr %2, align 8
  %3 = load ptr, ptr %2, align 8
  %4 = ptrtoint ptr %3 to i64
  ret i64 %4
}

; Function Attrs: mustprogress nounwind uwtable
define linkonce_odr hidden noundef ptr @_ZN19G1HeapRegionSetBase4nameEv(ptr noundef nonnull align 8 dereferenceable(33) %0) #1 comdat align 2 {
  %2 = alloca ptr, align 8
  store ptr %0, ptr %2, align 8
  %3 = load ptr, ptr %2, align 8
  %4 = getelementptr inbounds %class.G1HeapRegionSetBase, ptr %3, i32 0, i32 4
  %5 = load ptr, ptr %4, align 8
  ret ptr %5
}

; Function Attrs: mustprogress nounwind uwtable
define linkonce_odr hidden void @_ZN19G1HeapRegionSetBase13verify_regionEP12G1HeapRegion(ptr noundef nonnull align 8 dereferenceable(33) %0, ptr noundef %1) #1 comdat align 2 {
  %3 = alloca ptr, align 8
  %4 = alloca ptr, align 8
  store ptr %0, ptr %3, align 8
  store ptr %1, ptr %4, align 8
  ret void
}

; Function Attrs: mustprogress nounwind uwtable
define linkonce_odr hidden noundef ptr @_ZN12G1HeapRegion4prevEv(ptr noundef nonnull align 8 dereferenceable(136) %0) #1 comdat align 2 {
  %2 = alloca ptr, align 8
  store ptr %0, ptr %2, align 8
  %3 = load ptr, ptr %2, align 8
  %4 = getelementptr inbounds %class.G1HeapRegion, ptr %3, i32 0, i32 11
  %5 = load ptr, ptr %4, align 8
  ret ptr %5
}

; Function Attrs: mustprogress nounwind uwtable
define hidden void @_ZN16G1FreeRegionList11verify_listEv(ptr noundef nonnull align 8 dereferenceable(72) %0) #1 align 2 {
  %2 = alloca ptr, align 8
  %3 = alloca ptr, align 8
  %4 = alloca ptr, align 8
  %5 = alloca ptr, align 8
  %6 = alloca i32, align 4
  %7 = alloca i64, align 8
  %8 = alloca i32, align 4
  store ptr %0, ptr %2, align 8
  %9 = load ptr, ptr %2, align 8
  %10 = getelementptr inbounds %class.G1FreeRegionList, ptr %9, i32 0, i32 1
  %11 = load ptr, ptr %10, align 8
  store ptr %11, ptr %3, align 8
  store ptr null, ptr %4, align 8
  store ptr null, ptr %5, align 8
  store i32 0, ptr %6, align 4
  store i64 0, ptr %7, align 8
  store i32 0, ptr %8, align 4
  br label %12

12:                                               ; preds = %1
  %13 = getelementptr inbounds %class.G1FreeRegionList, ptr %9, i32 0, i32 1
  %14 = load ptr, ptr %13, align 8
  %15 = icmp eq ptr %14, null
  br i1 %15, label %23, label %16

16:                                               ; preds = %12
  %17 = getelementptr inbounds %class.G1FreeRegionList, ptr %9, i32 0, i32 1
  %18 = load ptr, ptr %17, align 8
  %19 = call noundef ptr @_ZN12G1HeapRegion4prevEv(ptr noundef nonnull align 8 dereferenceable(136) %18)
  %20 = icmp eq ptr %19, null
  br i1 %20, label %23, label %21

21:                                               ; preds = %16
  %22 = load ptr, ptr @g_assert_poison, align 8
  store i8 88, ptr %22, align 1
  call void (ptr, i32, ptr, ptr, ...) @_Z15report_vm_errorPKciS0_S0_z(ptr noundef @.str, i32 noundef 339, ptr noundef @.str.12, ptr noundef @.str.13) #8
  unreachable

23:                                               ; preds = %16, %12
  br label %24

24:                                               ; preds = %23
  br label %25

25:                                               ; preds = %76, %24
  %26 = load ptr, ptr %3, align 8
  %27 = icmp ne ptr %26, null
  br i1 %27, label %28, label %87

28:                                               ; preds = %25
  %29 = load ptr, ptr %3, align 8
  call void @_ZN19G1HeapRegionSetBase13verify_regionEP12G1HeapRegion(ptr noundef nonnull align 8 dereferenceable(33) %9, ptr noundef %29)
  %30 = load i32, ptr %6, align 4
  %31 = add i32 %30, 1
  store i32 %31, ptr %6, align 4
  br label %32

32:                                               ; preds = %28
  %33 = load i32, ptr %6, align 4
  %34 = load i32, ptr @_ZN16G1FreeRegionList28_unrealistically_long_lengthE, align 4
  %35 = icmp ult i32 %33, %34
  br i1 %35, label %47, label %36

36:                                               ; preds = %32
  %37 = load ptr, ptr @g_assert_poison, align 8
  store i8 88, ptr %37, align 1
  %38 = call noundef ptr @_ZN19G1HeapRegionSetBase4nameEv(ptr noundef nonnull align 8 dereferenceable(33) %9)
  %39 = load i32, ptr %6, align 4
  %40 = load ptr, ptr %3, align 8
  %41 = call noundef i64 @_Z3p2iPVKv(ptr noundef %40)
  %42 = load ptr, ptr %5, align 8
  %43 = call noundef i64 @_Z3p2iPVKv(ptr noundef %42)
  %44 = load ptr, ptr %4, align 8
  %45 = call noundef i64 @_Z3p2iPVKv(ptr noundef %44)
  %46 = call noundef i32 @_ZNK19G1HeapRegionSetBase6lengthEv(ptr noundef nonnull align 8 dereferenceable(33) %9)
  call void (ptr, i32, ptr, ptr, ...) @_Z15report_vm_errorPKciS0_S0_z(ptr noundef @.str, i32 noundef 346, ptr noundef @.str.14, ptr noundef @.str.15, ptr noundef %38, i32 noundef %39, i64 noundef %41, i64 noundef %43, i64 noundef %45, i32 noundef %46) #8
  unreachable

47:                                               ; preds = %32
  br label %48

48:                                               ; preds = %47
  %49 = load ptr, ptr %3, align 8
  %50 = call noundef ptr @_ZN12G1HeapRegion4nextEv(ptr noundef nonnull align 8 dereferenceable(136) %49)
  %51 = icmp ne ptr %50, null
  br i1 %51, label %52, label %63

52:                                               ; preds = %48
  br label %53

53:                                               ; preds = %52
  %54 = load ptr, ptr %3, align 8
  %55 = call noundef ptr @_ZN12G1HeapRegion4nextEv(ptr noundef nonnull align 8 dereferenceable(136) %54)
  %56 = call noundef ptr @_ZN12G1HeapRegion4prevEv(ptr noundef nonnull align 8 dereferenceable(136) %55)
  %57 = load ptr, ptr %3, align 8
  %58 = icmp eq ptr %56, %57
  br i1 %58, label %61, label %59

59:                                               ; preds = %53
  %60 = load ptr, ptr @g_assert_poison, align 8
  store i8 88, ptr %60, align 1
  call void (ptr, i32, ptr, ptr, ...) @_Z15report_vm_errorPKciS0_S0_z(ptr noundef @.str, i32 noundef 349, ptr noundef @.str.16, ptr noundef @.str.17) #8
  unreachable

61:                                               ; preds = %53
  br label %62

62:                                               ; preds = %61
  br label %63

63:                                               ; preds = %62, %48
  br label %64

64:                                               ; preds = %63
  %65 = load ptr, ptr %3, align 8
  %66 = call noundef i32 @_ZNK12G1HeapRegion9hrm_indexEv(ptr noundef nonnull align 8 dereferenceable(136) %65)
  %67 = icmp eq i32 %66, 0
  br i1 %67, label %75, label %68

68:                                               ; preds = %64
  %69 = load ptr, ptr %3, align 8
  %70 = call noundef i32 @_ZNK12G1HeapRegion9hrm_indexEv(ptr noundef nonnull align 8 dereferenceable(136) %69)
  %71 = load i32, ptr %8, align 4
  %72 = icmp ugt i32 %70, %71
  br i1 %72, label %75, label %73

73:                                               ; preds = %68
  %74 = load ptr, ptr @g_assert_poison, align 8
  store i8 88, ptr %74, align 1
  call void (ptr, i32, ptr, ptr, ...) @_Z15report_vm_errorPKciS0_S0_z(ptr noundef @.str, i32 noundef 351, ptr noundef @.str.18, ptr noundef @.str.19) #8
  unreachable

75:                                               ; preds = %68, %64
  br label %76

76:                                               ; preds = %75
  %77 = load ptr, ptr %3, align 8
  %78 = call noundef i32 @_ZNK12G1HeapRegion9hrm_indexEv(ptr noundef nonnull align 8 dereferenceable(136) %77)
  store i32 %78, ptr %8, align 4
  %79 = load ptr, ptr %3, align 8
  %80 = call noundef i64 @_ZNK12G1HeapRegion8capacityEv(ptr noundef nonnull align 8 dereferenceable(136) %79)
  %81 = load i64, ptr %7, align 8
  %82 = add i64 %81, %80
  store i64 %82, ptr %7, align 8
  %83 = load ptr, ptr %5, align 8
  store ptr %83, ptr %4, align 8
  %84 = load ptr, ptr %3, align 8
  store ptr %84, ptr %5, align 8
  %85 = load ptr, ptr %3, align 8
  %86 = call noundef ptr @_ZN12G1HeapRegion4nextEv(ptr noundef nonnull align 8 dereferenceable(136) %85)
  store ptr %86, ptr %3, align 8
  br label %25, !llvm.loop !12

87:                                               ; preds = %25
  br label %88

88:                                               ; preds = %87
  %89 = getelementptr inbounds %class.G1FreeRegionList, ptr %9, i32 0, i32 2
  %90 = load ptr, ptr %89, align 8
  %91 = load ptr, ptr %5, align 8
  %92 = icmp eq ptr %90, %91
  br i1 %92, label %101, label %93

93:                                               ; preds = %88
  %94 = load ptr, ptr @g_assert_poison, align 8
  store i8 88, ptr %94, align 1
  %95 = call noundef ptr @_ZN19G1HeapRegionSetBase4nameEv(ptr noundef nonnull align 8 dereferenceable(33) %9)
  %96 = getelementptr inbounds %class.G1FreeRegionList, ptr %9, i32 0, i32 2
  %97 = load ptr, ptr %96, align 8
  %98 = call noundef i32 @_ZNK12G1HeapRegion9hrm_indexEv(ptr noundef nonnull align 8 dereferenceable(136) %97)
  %99 = load ptr, ptr %5, align 8
  %100 = call noundef i32 @_ZNK12G1HeapRegion9hrm_indexEv(ptr noundef nonnull align 8 dereferenceable(136) %99)
  call void (ptr, i32, ptr, ptr, ...) @_Z15report_vm_errorPKciS0_S0_z(ptr noundef @.str, i32 noundef 361, ptr noundef @.str.20, ptr noundef @.str.21, ptr noundef %95, i32 noundef %98, i32 noundef %100) #8
  unreachable

101:                                              ; preds = %88
  br label %102

102:                                              ; preds = %101
  br label %103

103:                                              ; preds = %102
  %104 = getelementptr inbounds %class.G1FreeRegionList, ptr %9, i32 0, i32 2
  %105 = load ptr, ptr %104, align 8
  %106 = icmp eq ptr %105, null
  br i1 %106, label %114, label %107

107:                                              ; preds = %103
  %108 = getelementptr inbounds %class.G1FreeRegionList, ptr %9, i32 0, i32 2
  %109 = load ptr, ptr %108, align 8
  %110 = call noundef ptr @_ZN12G1HeapRegion4nextEv(ptr noundef nonnull align 8 dereferenceable(136) %109)
  %111 = icmp eq ptr %110, null
  br i1 %111, label %114, label %112

112:                                              ; preds = %107
  %113 = load ptr, ptr @g_assert_poison, align 8
  store i8 88, ptr %113, align 1
  call void (ptr, i32, ptr, ptr, ...) @_Z15report_vm_errorPKciS0_S0_z(ptr noundef @.str, i32 noundef 362, ptr noundef @.str.22, ptr noundef @.str.23) #8
  unreachable

114:                                              ; preds = %107, %103
  br label %115

115:                                              ; preds = %114
  br label %116

116:                                              ; preds = %115
  %117 = call noundef i32 @_ZNK19G1HeapRegionSetBase6lengthEv(ptr noundef nonnull align 8 dereferenceable(33) %9)
  %118 = load i32, ptr %6, align 4
  %119 = icmp eq i32 %117, %118
  br i1 %119, label %125, label %120

120:                                              ; preds = %116
  %121 = load ptr, ptr @g_assert_poison, align 8
  store i8 88, ptr %121, align 1
  %122 = call noundef ptr @_ZN19G1HeapRegionSetBase4nameEv(ptr noundef nonnull align 8 dereferenceable(33) %9)
  %123 = call noundef i32 @_ZNK19G1HeapRegionSetBase6lengthEv(ptr noundef nonnull align 8 dereferenceable(33) %9)
  %124 = load i32, ptr %6, align 4
  call void (ptr, i32, ptr, ptr, ...) @_Z15report_vm_errorPKciS0_S0_z(ptr noundef @.str, i32 noundef 363, ptr noundef @.str.24, ptr noundef @.str.25, ptr noundef %122, i32 noundef %123, i32 noundef %124) #8
  unreachable

125:                                              ; preds = %116
  br label %126

126:                                              ; preds = %125
  ret void
}