; Function Attrs: mustprogress nounwind uwtable
define hidden void @_ZN16G1FreeRegionList11verify_listEv(ptr nocapture noundef nonnull readonly align 8 dereferenceable(72) %0) local_unnamed_addr #0 align 2 {
  %2 = getelementptr inbounds i8, ptr %0, i64 40
  %3 = load ptr, ptr %2, align 8
  %4 = icmp eq ptr %3, null
  br i1 %4, label %11, label %5

5:                                                ; preds = %1
  %6 = getelementptr inbounds i8, ptr %3, i64 80
  %7 = load ptr, ptr %6, align 8
  %8 = icmp eq ptr %7, null
  br i1 %8, label %11, label %9

9:                                                ; preds = %5
  %10 = load ptr, ptr @g_assert_poison, align 8
  store i8 88, ptr %10, align 1
  tail call void (ptr, i32, ptr, ptr, ...) @_Z15report_vm_errorPKciS0_S0_z(ptr noundef nonnull @.str, i32 noundef 339, ptr noundef nonnull @.str.12, ptr noundef nonnull @.str.13) #13
  unreachable

11:                                               ; preds = %1, %5
  %12 = load i32, ptr @_ZN16G1FreeRegionList28_unrealistically_long_lengthE, align 4
  %umax = tail call i32 @llvm.umax.i32(i32 %12, i32 1)
  %13 = add i32 %umax, -1
  br label %14

14:                                               ; preds = %35, %11
  %.028 = phi ptr [ %3, %11 ], [ %28, %35 ]
  %.027 = phi ptr [ null, %11 ], [ %.026, %35 ]
  %.026 = phi ptr [ null, %11 ], [ %.028, %35 ]
  %.025 = phi i32 [ 0, %11 ], [ %16, %35 ]
  %.0 = phi i32 [ 0, %11 ], [ %37, %35 ]
  %.not = icmp eq ptr %.028, null
  br i1 %.not, label %41, label %15

15:                                               ; preds = %14
  %16 = add nuw i32 %.025, 1
  %exitcond.not = icmp eq i32 %.025, %13
  br i1 %exitcond.not, label %17, label %26

17:                                               ; preds = %15
  %18 = load ptr, ptr @g_assert_poison, align 8
  store i8 88, ptr %18, align 1
  %19 = getelementptr inbounds i8, ptr %0, i64 24
  %20 = load ptr, ptr %19, align 8
  %21 = ptrtoint ptr %.028 to i64
  %22 = ptrtoint ptr %.026 to i64
  %23 = ptrtoint ptr %.027 to i64
  %24 = getelementptr inbounds i8, ptr %0, i64 16
  %25 = load i32, ptr %24, align 8
  tail call void (ptr, i32, ptr, ptr, ...) @_Z15report_vm_errorPKciS0_S0_z(ptr noundef nonnull @.str, i32 noundef 346, ptr noundef nonnull @.str.14, ptr noundef nonnull @.str.15, ptr noundef %20, i32 noundef %umax, i64 noundef %21, i64 noundef %22, i64 noundef %23, i32 noundef %25) #13
  unreachable

26:                                               ; preds = %15
  %27 = getelementptr inbounds i8, ptr %.028, i64 72
  %28 = load ptr, ptr %27, align 8
  %.not32 = icmp eq ptr %28, null
  br i1 %.not32, label %35, label %29

29:                                               ; preds = %26
  %30 = getelementptr inbounds i8, ptr %28, i64 80
  %31 = load ptr, ptr %30, align 8
  %32 = icmp eq ptr %31, %.028
  br i1 %32, label %35, label %33

33:                                               ; preds = %29
  %34 = load ptr, ptr @g_assert_poison, align 8
  store i8 88, ptr %34, align 1
  tail call void (ptr, i32, ptr, ptr, ...) @_Z15report_vm_errorPKciS0_S0_z(ptr noundef nonnull @.str, i32 noundef 349, ptr noundef nonnull @.str.16, ptr noundef nonnull @.str.17) #13
  unreachable

35:                                               ; preds = %26, %29
  %36 = getelementptr inbounds i8, ptr %.028, i64 48
  %37 = load i32, ptr %36, align 8
  %38 = add i32 %37, -1
  %or.cond.not = icmp ult i32 %38, %.0
  br i1 %or.cond.not, label %39, label %14, !llvm.loop !12

39:                                               ; preds = %35
  %40 = load ptr, ptr @g_assert_poison, align 8
  store i8 88, ptr %40, align 1
  tail call void (ptr, i32, ptr, ptr, ...) @_Z15report_vm_errorPKciS0_S0_z(ptr noundef nonnull @.str, i32 noundef 351, ptr noundef nonnull @.str.18, ptr noundef nonnull @.str.19) #13
  unreachable

41:                                               ; preds = %14
  %42 = getelementptr inbounds i8, ptr %0, i64 48
  %43 = load ptr, ptr %42, align 8
  %44 = icmp eq ptr %43, %.026
  br i1 %44, label %54, label %45

45:                                               ; preds = %41
  %46 = load ptr, ptr @g_assert_poison, align 8
  store i8 88, ptr %46, align 1
  %47 = getelementptr inbounds i8, ptr %0, i64 24
  %48 = load ptr, ptr %47, align 8
  %49 = load ptr, ptr %42, align 8
  %50 = getelementptr inbounds i8, ptr %49, i64 48
  %51 = load i32, ptr %50, align 8
  %52 = getelementptr inbounds i8, ptr %.026, i64 48
  %53 = load i32, ptr %52, align 8
  tail call void (ptr, i32, ptr, ptr, ...) @_Z15report_vm_errorPKciS0_S0_z(ptr noundef nonnull @.str, i32 noundef 361, ptr noundef nonnull @.str.20, ptr noundef nonnull @.str.21, ptr noundef %48, i32 noundef %51, i32 noundef %53) #13
  unreachable

54:                                               ; preds = %41
  %55 = icmp eq ptr %.026, null
  br i1 %55, label %62, label %56

56:                                               ; preds = %54
  %57 = getelementptr inbounds i8, ptr %43, i64 72
  %58 = load ptr, ptr %57, align 8
  %59 = icmp eq ptr %58, null
  br i1 %59, label %62, label %60

60:                                               ; preds = %56
  %61 = load ptr, ptr @g_assert_poison, align 8
  store i8 88, ptr %61, align 1
  tail call void (ptr, i32, ptr, ptr, ...) @_Z15report_vm_errorPKciS0_S0_z(ptr noundef nonnull @.str, i32 noundef 362, ptr noundef nonnull @.str.22, ptr noundef nonnull @.str.23) #13
  unreachable

62:                                               ; preds = %56, %54
  %63 = getelementptr inbounds i8, ptr %0, i64 16
  %64 = load i32, ptr %63, align 8
  %65 = icmp eq i32 %64, %.025
  br i1 %65, label %71, label %66

66:                                               ; preds = %62
  %67 = load ptr, ptr @g_assert_poison, align 8
  store i8 88, ptr %67, align 1
  %68 = getelementptr inbounds i8, ptr %0, i64 24
  %69 = load ptr, ptr %68, align 8
  %70 = load i32, ptr %63, align 8
  tail call void (ptr, i32, ptr, ptr, ...) @_Z15report_vm_errorPKciS0_S0_z(ptr noundef nonnull @.str, i32 noundef 363, ptr noundef nonnull @.str.24, ptr noundef nonnull @.str.25, ptr noundef %69, i32 noundef %70, i32 noundef %.025) #13
  unreachable

71:                                               ; preds = %62
  ret void
}